target datalayout = "e-m:e-p270:32:32-p271:32:32-p272:64:64-i64:64-i128:128-f80:128-n8:16:32:64-S128"
target triple = "x86_64-pc-linux-gnu"

%struct.AVFormatContext = type { ptr, ptr, ptr, ptr, ptr, i32, i32, ptr, i32, ptr, i32, ptr, ptr, i64, i64, i64, i32, i32, i32, i64, i64, ptr, i32, i32, ptr, i32, i32, i32, i32, ptr, i64, i32, i32, %struct.AVIOInterruptCB, i32, i32, i32, i32, i64, i32, i32, i32, i32, i32, i32, i32, i32, i32, i32, i32, i32, i64, i32, i32, i32, i32, i32, ptr, ptr, ptr, ptr, i32, ptr, ptr, ptr, ptr, i32, ptr, ptr, i64, ptr, ptr, ptr, i64 }
%struct.AVIOInterruptCB = type { ptr, ptr }
%struct.AVPacket = type { ptr, i64, i64, ptr, i32, i32, i32, ptr, i32, i64, i64, ptr, ptr, %struct.AVRational }
%struct.AVRational = type { i32, i32 }
%struct.IEC61937Context = type { ptr, i32, i32, i32, ptr, i32, ptr, i32, i32, i32, [2 x ptr], i32, i32, i32, i32, i32, i16, i32, i32, i32, i32, i32, ptr }

@spdif_header_eac3.eac3_repeat = internal constant [4 x i8] c"\06\03\02\01", align 1

; Function Attrs: nounwind uwtable
define internal i32 @spdif_header_eac3(ptr noundef %0, ptr noundef %1) #0 {
  %3 = alloca i32, align 4
  %4 = alloca ptr, align 8
  %5 = alloca ptr, align 8
  %6 = alloca ptr, align 8
  %7 = alloca i32, align 4
  %8 = alloca ptr, align 8
  %9 = alloca i32, align 4
  %10 = alloca i32, align 4
  store ptr %0, ptr %4, align 8, !tbaa !4
  store ptr %1, ptr %5, align 8, !tbaa !48
  call void @llvm.lifetime.start.p0(i64 8, ptr %6) #7
  %11 = load ptr, ptr %4, align 8, !tbaa !4
  %12 = getelementptr inbounds nuw %struct.AVFormatContext, ptr %11, i32 0, i32 3
  %13 = load ptr, ptr %12, align 8, !tbaa !9
  store ptr %13, ptr %6, align 8, !tbaa !26
  call void @llvm.lifetime.start.p0(i64 4, ptr %7) #7
  store i32 1, ptr %7, align 4, !tbaa !44
  call void @llvm.lifetime.start.p0(i64 8, ptr %8) #7
  call void @llvm.lifetime.start.p0(i64 4, ptr %9) #7
  %14 = load ptr, ptr %5, align 8, !tbaa !48
  %15 = getelementptr inbounds nuw %struct.AVPacket, ptr %14, i32 0, i32 3
  %16 = load ptr, ptr %15, align 8, !tbaa !50
  %17 = getelementptr inbounds i8, ptr %16, i64 5
  %18 = load i8, ptr %17, align 1, !tbaa !62
  %19 = zext i8 %18 to i32
  %20 = ashr i32 %19, 3
  store i32 %20, ptr %9, align 4, !tbaa !44
  %21 = load i32, ptr %9, align 4, !tbaa !44
  %22 = icmp sgt i32 %21, 10
  br i1 %22, label %23, label %45

23:                                               ; preds = %2
  %24 = load ptr, ptr %5, align 8, !tbaa !48
  %25 = getelementptr inbounds nuw %struct.AVPacket, ptr %24, i32 0, i32 3
  %26 = load ptr, ptr %25, align 8, !tbaa !50
  %27 = getelementptr inbounds i8, ptr %26, i64 4
  %28 = load i8, ptr %27, align 1, !tbaa !62
  %29 = zext i8 %28 to i32
  %30 = and i32 %29, 192
  %31 = icmp ne i32 %30, 192
  br i1 %31, label %32, label %45

32:                                               ; preds = %23
  %33 = load ptr, ptr %5, align 8, !tbaa !48
  %34 = getelementptr inbounds nuw %struct.AVPacket, ptr %33, i32 0, i32 3
  %35 = load ptr, ptr %34, align 8, !tbaa !50
  %36 = getelementptr inbounds i8, ptr %35, i64 4
  %37 = load i8, ptr %36, align 1, !tbaa !62
  %38 = zext i8 %37 to i32
  %39 = and i32 %38, 48
  %40 = ashr i32 %39, 4
  %41 = sext i32 %40 to i64
  %42 = getelementptr inbounds [4 x i8], ptr @spdif_header_eac3.eac3_repeat, i64 0, i64 %41
  %43 = load i8, ptr %42, align 1, !tbaa !62
  %44 = zext i8 %43 to i32
  store i32 %44, ptr %7, align 4, !tbaa !44
  br label %45

45:                                               ; preds = %32, %23, %2
  %46 = load ptr, ptr %6, align 8, !tbaa !26
  %47 = getelementptr inbounds nuw %struct.IEC61937Context, ptr %46, i32 0, i32 10
  %48 = getelementptr inbounds [2 x ptr], ptr %47, i64 0, i64 0
  %49 = load ptr, ptr %48, align 8, !tbaa !45
  %50 = load ptr, ptr %6, align 8, !tbaa !26
  %51 = getelementptr inbounds nuw %struct.IEC61937Context, ptr %50, i32 0, i32 11
  %52 = load ptr, ptr %6, align 8, !tbaa !26
  %53 = getelementptr inbounds nuw %struct.IEC61937Context, ptr %52, i32 0, i32 13
  %54 = load i32, ptr %53, align 8, !tbaa !64
  %55 = load ptr, ptr %5, align 8, !tbaa !48
  %56 = getelementptr inbounds nuw %struct.AVPacket, ptr %55, i32 0, i32 4
  %57 = load i32, ptr %56, align 8, !tbaa !52
  %58 = add nsw i32 %54, %57
  %59 = sext i32 %58 to i64
  %60 = call ptr @av_fast_realloc(ptr noundef %49, ptr noundef %51, i64 noundef %59)
  store ptr %60, ptr %8, align 8, !tbaa !45
  %61 = load ptr, ptr %8, align 8, !tbaa !45
  %62 = icmp ne ptr %61, null
  br i1 %62, label %64, label %63

63:                                               ; preds = %45
  store i32 -12, ptr %3, align 4
  store i32 1, ptr %10, align 4
  br label %126

64:                                               ; preds = %45
  %65 = load ptr, ptr %8, align 8, !tbaa !45
  %66 = load ptr, ptr %6, align 8, !tbaa !26
  %67 = getelementptr inbounds nuw %struct.IEC61937Context, ptr %66, i32 0, i32 10
  %68 = getelementptr inbounds [2 x ptr], ptr %67, i64 0, i64 0
  store ptr %65, ptr %68, align 8, !tbaa !45
  %69 = load ptr, ptr %6, align 8, !tbaa !26
  %70 = getelementptr inbounds nuw %struct.IEC61937Context, ptr %69, i32 0, i32 10
  %71 = getelementptr inbounds [2 x ptr], ptr %70, i64 0, i64 0
  %72 = load ptr, ptr %71, align 8, !tbaa !45
  %73 = load ptr, ptr %6, align 8, !tbaa !26
  %74 = getelementptr inbounds nuw %struct.IEC61937Context, ptr %73, i32 0, i32 13
  %75 = load i32, ptr %74, align 8, !tbaa !64
  %76 = sext i32 %75 to i64
  %77 = getelementptr inbounds i8, ptr %72, i64 %76
  %78 = load ptr, ptr %5, align 8, !tbaa !48
  %79 = getelementptr inbounds nuw %struct.AVPacket, ptr %78, i32 0, i32 3
  %80 = load ptr, ptr %79, align 8, !tbaa !50
  %81 = load ptr, ptr %5, align 8, !tbaa !48
  %82 = getelementptr inbounds nuw %struct.AVPacket, ptr %81, i32 0, i32 4
  %83 = load i32, ptr %82, align 8, !tbaa !52
  %84 = sext i32 %83 to i64
  call void @llvm.memcpy.p0.p0.i64(ptr align 1 %77, ptr align 1 %80, i64 %84, i1 false)
  %85 = load ptr, ptr %5, align 8, !tbaa !48
  %86 = getelementptr inbounds nuw %struct.AVPacket, ptr %85, i32 0, i32 4
  %87 = load i32, ptr %86, align 8, !tbaa !52
  %88 = load ptr, ptr %6, align 8, !tbaa !26
  %89 = getelementptr inbounds nuw %struct.IEC61937Context, ptr %88, i32 0, i32 13
  %90 = load i32, ptr %89, align 8, !tbaa !64
  %91 = add nsw i32 %90, %87
  store i32 %91, ptr %89, align 8, !tbaa !64
  %92 = load ptr, ptr %6, align 8, !tbaa !26
  %93 = getelementptr inbounds nuw %struct.IEC61937Context, ptr %92, i32 0, i32 12
  %94 = load i32, ptr %93, align 4, !tbaa !65
  %95 = add nsw i32 %94, 1
  store i32 %95, ptr %93, align 4, !tbaa !65
  %96 = load i32, ptr %7, align 4, !tbaa !44
  %97 = icmp slt i32 %95, %96
  br i1 %97, label %98, label %101

98:                                               ; preds = %64
  %99 = load ptr, ptr %6, align 8, !tbaa !26
  %100 = getelementptr inbounds nuw %struct.IEC61937Context, ptr %99, i32 0, i32 3
  store i32 0, ptr %100, align 8, !tbaa !57
  store i32 0, ptr %3, align 4
  store i32 1, ptr %10, align 4
  br label %126

101:                                              ; preds = %64
  %102 = load ptr, ptr %6, align 8, !tbaa !26
  %103 = getelementptr inbounds nuw %struct.IEC61937Context, ptr %102, i32 0, i32 1
  store i32 21, ptr %103, align 8, !tbaa !59
  %104 = load ptr, ptr %6, align 8, !tbaa !26
  %105 = getelementptr inbounds nuw %struct.IEC61937Context, ptr %104, i32 0, i32 3
  store i32 24576, ptr %105, align 8, !tbaa !57
  %106 = load ptr, ptr %6, align 8, !tbaa !26
  %107 = getelementptr inbounds nuw %struct.IEC61937Context, ptr %106, i32 0, i32 10
  %108 = getelementptr inbounds [2 x ptr], ptr %107, i64 0, i64 0
  %109 = load ptr, ptr %108, align 8, !tbaa !45
  %110 = load ptr, ptr %6, align 8, !tbaa !26
  %111 = getelementptr inbounds nuw %struct.IEC61937Context, ptr %110, i32 0, i32 6
  store ptr %109, ptr %111, align 8, !tbaa !51
  %112 = load ptr, ptr %6, align 8, !tbaa !26
  %113 = getelementptr inbounds nuw %struct.IEC61937Context, ptr %112, i32 0, i32 13
  %114 = load i32, ptr %113, align 8, !tbaa !64
  %115 = load ptr, ptr %6, align 8, !tbaa !26
  %116 = getelementptr inbounds nuw %struct.IEC61937Context, ptr %115, i32 0, i32 7
  store i32 %114, ptr %116, align 8, !tbaa !53
  %117 = load ptr, ptr %6, align 8, !tbaa !26
  %118 = getelementptr inbounds nuw %struct.IEC61937Context, ptr %117, i32 0, i32 13
  %119 = load i32, ptr %118, align 8, !tbaa !64
  %120 = load ptr, ptr %6, align 8, !tbaa !26
  %121 = getelementptr inbounds nuw %struct.IEC61937Context, ptr %120, i32 0, i32 2
  store i32 %119, ptr %121, align 4, !tbaa !54
  %122 = load ptr, ptr %6, align 8, !tbaa !26
  %123 = getelementptr inbounds nuw %struct.IEC61937Context, ptr %122, i32 0, i32 12
  store i32 0, ptr %123, align 4, !tbaa !65
  %124 = load ptr, ptr %6, align 8, !tbaa !26
  %125 = getelementptr inbounds nuw %struct.IEC61937Context, ptr %124, i32 0, i32 13
  store i32 0, ptr %125, align 8, !tbaa !64
  store i32 0, ptr %3, align 4
  store i32 1, ptr %10, align 4
  br label %126

126:                                              ; preds = %101, %98, %63
  call void @llvm.lifetime.end.p0(i64 4, ptr %9) #7
  call void @llvm.lifetime.end.p0(i64 8, ptr %8) #7
  call void @llvm.lifetime.end.p0(i64 4, ptr %7) #7
  call void @llvm.lifetime.end.p0(i64 8, ptr %6) #7
  %127 = load i32, ptr %3, align 4
  ret i32 %127
}