; Function Attrs: nounwind uwtable
define internal range(i32 -12, 1) i32 @spdif_header_eac3(ptr noundef readonly captures(none) %0, ptr noundef readonly captures(none) %1) #0 {
  %3 = getelementptr inbounds nuw i8, ptr %0, i64 24
  %4 = load ptr, ptr %3, align 8, !tbaa !4
  %5 = getelementptr inbounds nuw i8, ptr %1, i64 24
  %6 = load ptr, ptr %5, align 8, !tbaa !41
  %7 = getelementptr inbounds nuw i8, ptr %6, i64 5
  %8 = load i8, ptr %7, align 1, !tbaa !53
  %9 = icmp ugt i8 %8, 87
  br i1 %9, label %10, label %22

10:                                               ; preds = %2
  %11 = getelementptr inbounds nuw i8, ptr %6, i64 4
  %12 = load i8, ptr %11, align 1, !tbaa !53
  %13 = zext i8 %12 to i32
  %14 = and i32 %13, 192
  %.not = icmp eq i32 %14, 192
  br i1 %.not, label %22, label %15

15:                                               ; preds = %10
  %16 = lshr i32 %13, 4
  %17 = and i32 %16, 3
  %18 = zext nneg i32 %17 to i64
  %19 = getelementptr inbounds nuw [4 x i8], ptr @spdif_header_eac3.eac3_repeat, i64 0, i64 %18
  %20 = load i8, ptr %19, align 1, !tbaa !53
  %21 = zext i8 %20 to i32
  br label %22

22:                                               ; preds = %15, %10, %2
  %.031 = phi i32 [ %21, %15 ], [ 1, %10 ], [ 1, %2 ]
  %23 = getelementptr inbounds nuw i8, ptr %4, i64 64
  %24 = load ptr, ptr %23, align 8, !tbaa !40
  %25 = getelementptr inbounds nuw i8, ptr %4, i64 80
  %26 = getelementptr inbounds nuw i8, ptr %4, i64 88
  %27 = load i32, ptr %26, align 8, !tbaa !54
  %28 = getelementptr inbounds nuw i8, ptr %1, i64 32
  %29 = load i32, ptr %28, align 8, !tbaa !43
  %30 = add nsw i32 %29, %27
  %31 = sext i32 %30 to i64
  %32 = tail call ptr @av_fast_realloc(ptr noundef %24, ptr noundef nonnull %25, i64 noundef %31) #7
  %.not33 = icmp eq ptr %32, null
  br i1 %.not33, label %56, label %33

33:                                               ; preds = %22
  store ptr %32, ptr %23, align 8, !tbaa !40
  %34 = load i32, ptr %26, align 8, !tbaa !54
  %35 = sext i32 %34 to i64
  %36 = getelementptr inbounds i8, ptr %32, i64 %35
  %37 = load ptr, ptr %5, align 8, !tbaa !41
  %38 = load i32, ptr %28, align 8, !tbaa !43
  %39 = sext i32 %38 to i64
  tail call void @llvm.memcpy.p0.p0.i64(ptr nonnull align 1 %36, ptr align 1 %37, i64 %39, i1 false)
  %40 = load i32, ptr %28, align 8, !tbaa !43
  %41 = load i32, ptr %26, align 8, !tbaa !54
  %42 = add nsw i32 %41, %40
  store i32 %42, ptr %26, align 8, !tbaa !54
  %43 = getelementptr inbounds nuw i8, ptr %4, i64 84
  %44 = load i32, ptr %43, align 4, !tbaa !55
  %45 = add nsw i32 %44, 1
  store i32 %45, ptr %43, align 4, !tbaa !55
  %46 = icmp slt i32 %45, %.031
  br i1 %46, label %47, label %49

47:                                               ; preds = %33
  %48 = getelementptr inbounds nuw i8, ptr %4, i64 16
  store i32 0, ptr %48, align 8, !tbaa !48
  br label %56

49:                                               ; preds = %33
  %50 = getelementptr inbounds nuw i8, ptr %4, i64 8
  store i32 21, ptr %50, align 8, !tbaa !51
  %51 = getelementptr inbounds nuw i8, ptr %4, i64 16
  store i32 24576, ptr %51, align 8, !tbaa !48
  %52 = load ptr, ptr %23, align 8, !tbaa !40
  %53 = getelementptr inbounds nuw i8, ptr %4, i64 40
  store ptr %52, ptr %53, align 8, !tbaa !42
  %54 = getelementptr inbounds nuw i8, ptr %4, i64 48
  store i32 %42, ptr %54, align 8, !tbaa !44
  %55 = getelementptr inbounds nuw i8, ptr %4, i64 12
  store i32 %42, ptr %55, align 4, !tbaa !45
  store i32 0, ptr %43, align 4, !tbaa !55
  store i32 0, ptr %26, align 8, !tbaa !54
  br label %56

56:                                               ; preds = %22, %49, %47
  %.0 = phi i32 [ 0, %47 ], [ 0, %49 ], [ -12, %22 ]
  ret i32 %.0
}